target datalayout = "e-m:e-p270:32:32-p271:32:32-p272:64:64-i64:64-i128:128-f80:128-n8:16:32:64-S128"
target triple = "x86_64-pc-linux-gnu"

%struct.SDL_Rect = type { i32, i32, i32, i32 }
%struct.SDL_VideoData = type { ptr, ptr, i32, ptr, i64, i32, ptr, i32, i64, i64, %struct.X11_ClipboardData, %struct.X11_ClipboardData, ptr, i64, %struct.X11_SettingsData, i8, %struct.anon.1, [256 x i32], i8, i8, i8, i64, i8, %struct.SDL_Point, i32, ptr, i32, i8, i32, %struct.anon.2, i8, i64, ptr, ptr, i8, i8, i8 }
%struct.X11_ClipboardData = type { ptr, ptr, ptr, i64, i32 }
%struct.X11_SettingsData = type { ptr }
%struct.anon.1 = type { i64, i64, i64, i64, i64, i64, i64, i64, i64, i64, i64, i64, i64, i64, i64, i64, i64, i64, i64, i64, i64, i64, i64, i64, i64, i64, i64, i64, i64, i64, i64, i64, i64, i64, i64, i64, i64, i64, i64, i64, i64, i64, i64, i64, i64, i64, i64, i64, i64, i64, i64, i64, i64 }
%struct.SDL_Point = type { i32, i32 }
%struct.anon.2 = type { ptr, i32, i32, i32, i16, i32, i32 }
%struct.XWindowAttributes = type { i32, i32, i32, i32, i32, i32, ptr, i64, i32, i32, i32, i32, i64, i64, i32, i64, i32, i32, i64, i64, i64, i32, ptr }
%struct.SDL_Window = type { i32, ptr, ptr, i32, i32, i32, i32, i32, i32, i32, i32, float, float, i32, i32, i64, i64, float, i8, i8, i32, i32, %struct.SDL_Rect, %struct.SDL_Rect, %struct.SDL_Rect, i8, i8, i8, %struct.SDL_DisplayMode, %struct.SDL_DisplayMode, %struct.SDL_HDROutputProperties, float, ptr, i8, i8, i8, i8, i8, i8, i8, i8, i8, i32, i32, i32, i32, %struct.SDL_Rect, i32, i8, %struct.SDL_Rect, i32, %struct.SDL_Rect, ptr, ptr, i32, float, i32, i32, ptr, ptr, ptr, ptr, ptr, ptr, ptr, ptr, ptr }
%struct.SDL_DisplayMode = type { i32, i32, i32, i32, float, float, i32, i32, ptr }
%struct.SDL_HDROutputProperties = type { float, float }
%struct.SDL_DisplayData = type { i32, ptr, i32, i32, i32, i32, i64, i8, i64, [16 x i8] }
%struct.anon.4 = type { ptr, ptr, i32, i32, i32, i32, ptr, i64, i64, i64, i32, ptr, i32, i32, i32, i32, i32, ptr, i32, i32, ptr, ptr, i32, i64, i64, ptr, ptr, ptr, ptr, i32, ptr, ptr, ptr, i32, i32, ptr, i64, i64, i32, i32, ptr, ptr, i32, ptr }
%struct.Screen = type { ptr, ptr, i64, i32, i32, i32, i32, i32, ptr, i32, ptr, ptr, i64, i64, i64, i32, i32, i32, i32, i64 }
%struct.SDL_WindowData = type { ptr, i64, ptr, i64, i8, %struct.XShmSegmentInfo, ptr, ptr, ptr, i8, i32, i32, i32, i32, i8, i8, i8, i64, i32, i64, i8, %struct.SDL_Point, %struct.XConfigureEvent, %struct.XConfigureEvent, ptr, i64, i64, i64, i8, i64, ptr, i8, [4 x i64], %struct.SDL_Rect, i64, %struct._XSyncValue, i8, %struct.SDL_Rect, %struct.SDL_DisplayMode, i32, i32, i8, i8, i8, i8, i8, i8, i8, i8, i32, %struct.XPoint, ptr, ptr, i32, i32, i8 }
%struct.XShmSegmentInfo = type { i64, i32, ptr, i32 }
%struct.XConfigureEvent = type { i32, i64, i32, ptr, i64, i64, i32, i32, i32, i32, i32, i64, i32 }
%struct._XSyncValue = type { i32, i32 }
%struct.XPoint = type { i16, i16 }
%struct.anon.6 = type { i64, i64, i64, i64, i64 }
%union._XEvent = type { [24 x i64] }

@X11_XChangeProperty = external global ptr, align 8
@X11_XGetWindowAttributes = external global ptr, align 8
@X11_XInternAtom = external global ptr, align 8
@X11_XSetTransientForHint = external global ptr, align 8
@X11_XFlush = external global ptr, align 8
@X11_XSync = external global ptr, align 8
@X11_XResizeWindow = external global ptr, align 8
@X11_XSetInputFocus = external global ptr, align 8
@X11_XCheckIfEvent = external global ptr, align 8
@.str.45 = private unnamed_addr constant [16 x i8] c"_MOTIF_WM_HINTS\00", align 1

; Function Attrs: nounwind uwtable
define internal void @SetWindowBordered(ptr noundef %0, i32 noundef %1, i64 noundef %2, i1 noundef zeroext %3) #0 {
  %5 = alloca ptr, align 8
  %6 = alloca i32, align 4
  %7 = alloca i64, align 8
  %8 = alloca i8, align 1
  %9 = alloca i64, align 8
  %10 = alloca %struct.anon.6, align 8
  store ptr %0, ptr %5, align 8
  store i32 %1, ptr %6, align 4
  store i64 %2, ptr %7, align 8
  %11 = zext i1 %3 to i8
  store i8 %11, ptr %8, align 1
  call void @llvm.lifetime.start.p0(i64 8, ptr %9) #7
  %12 = load ptr, ptr @X11_XInternAtom, align 8
  %13 = load ptr, ptr %5, align 8
  %14 = call i64 %12(ptr noundef %13, ptr noundef @.str.45, i32 noundef 1)
  store i64 %14, ptr %9, align 8
  %15 = load i64, ptr %9, align 8
  %16 = icmp ne i64 %15, 0
  br i1 %16, label %17, label %33

17:                                               ; preds = %4
  call void @llvm.lifetime.start.p0(i64 40, ptr %10) #7
  %18 = getelementptr inbounds nuw %struct.anon.6, ptr %10, i32 0, i32 0
  store i64 2, ptr %18, align 8
  %19 = getelementptr inbounds nuw %struct.anon.6, ptr %10, i32 0, i32 1
  store i64 0, ptr %19, align 8
  %20 = getelementptr inbounds nuw %struct.anon.6, ptr %10, i32 0, i32 2
  %21 = load i8, ptr %8, align 1, !range !5, !noundef !6
  %22 = trunc i8 %21 to i1
  %23 = select i1 %22, i32 1, i32 0
  %24 = sext i32 %23 to i64
  store i64 %24, ptr %20, align 8
  %25 = getelementptr inbounds nuw %struct.anon.6, ptr %10, i32 0, i32 3
  store i64 0, ptr %25, align 8
  %26 = getelementptr inbounds nuw %struct.anon.6, ptr %10, i32 0, i32 4
  store i64 0, ptr %26, align 8
  %27 = load ptr, ptr @X11_XChangeProperty, align 8
  %28 = load ptr, ptr %5, align 8
  %29 = load i64, ptr %7, align 8
  %30 = load i64, ptr %9, align 8
  %31 = load i64, ptr %9, align 8
  %32 = call i32 %27(ptr noundef %28, i64 noundef %29, i64 noundef %30, i64 noundef %31, i32 noundef 32, i32 noundef 0, ptr noundef %10, i32 noundef 5)
  call void @llvm.lifetime.end.p0(i64 40, ptr %10) #7
  br label %46

33:                                               ; preds = %4
  %34 = load ptr, ptr @X11_XSetTransientForHint, align 8
  %35 = load ptr, ptr %5, align 8
  %36 = load i64, ptr %7, align 8
  %37 = load ptr, ptr %5, align 8
  %38 = getelementptr inbounds nuw %struct.anon.4, ptr %37, i32 0, i32 35
  %39 = load ptr, ptr %38, align 8
  %40 = load i32, ptr %6, align 4
  %41 = sext i32 %40 to i64
  %42 = getelementptr inbounds %struct.Screen, ptr %39, i64 %41
  %43 = getelementptr inbounds nuw %struct.Screen, ptr %42, i32 0, i32 2
  %44 = load i64, ptr %43, align 8
  %45 = call i32 %34(ptr noundef %35, i64 noundef %36, i64 noundef %44)
  br label %46

46:                                               ; preds = %33, %17
  call void @llvm.lifetime.end.p0(i64 8, ptr %9) #7
  ret void
}

; Function Attrs: nounwind uwtable
define hidden void @X11_SetWindowBordered(ptr noundef %0, ptr noundef %1, i1 noundef zeroext %2) #0 {
  %4 = alloca ptr, align 8
  %5 = alloca ptr, align 8
  %6 = alloca i8, align 1
  %7 = alloca i8, align 1
  %8 = alloca i8, align 1
  %9 = alloca ptr, align 8
  %10 = alloca ptr, align 8
  %11 = alloca ptr, align 8
  %12 = alloca %union._XEvent, align 8
  %13 = alloca %struct.XWindowAttributes, align 8
  store ptr %0, ptr %4, align 8
  store ptr %1, ptr %5, align 8
  %14 = zext i1 %2 to i8
  store i8 %14, ptr %6, align 1
  call void @llvm.lifetime.start.p0(i64 1, ptr %7) #7
  %15 = load ptr, ptr %5, align 8
  %16 = getelementptr inbounds nuw %struct.SDL_Window, ptr %15, i32 0, i32 15
  %17 = load i64, ptr %16, align 8
  %18 = and i64 %17, 512
  %19 = icmp ne i64 %18, 0
  %20 = select i1 %19, i32 1, i32 0
  %21 = icmp ne i32 %20, 0
  %22 = zext i1 %21 to i8
  store i8 %22, ptr %7, align 1
  call void @llvm.lifetime.start.p0(i64 1, ptr %8) #7
  %23 = load ptr, ptr %5, align 8
  %24 = getelementptr inbounds nuw %struct.SDL_Window, ptr %23, i32 0, i32 15
  %25 = load i64, ptr %24, align 8
  %26 = and i64 %25, 8
  %27 = icmp ne i64 %26, 0
  %28 = xor i1 %27, true
  %29 = select i1 %28, i32 1, i32 0
  %30 = icmp ne i32 %29, 0
  %31 = zext i1 %30 to i8
  store i8 %31, ptr %8, align 1
  call void @llvm.lifetime.start.p0(i64 8, ptr %9) #7
  %32 = load ptr, ptr %5, align 8
  %33 = getelementptr inbounds nuw %struct.SDL_Window, ptr %32, i32 0, i32 59
  %34 = load ptr, ptr %33, align 8
  store ptr %34, ptr %9, align 8
  call void @llvm.lifetime.start.p0(i64 8, ptr %10) #7
  %35 = load ptr, ptr %5, align 8
  %36 = call ptr @SDL_GetDisplayDriverDataForWindow(ptr noundef %35)
  store ptr %36, ptr %10, align 8
  call void @llvm.lifetime.start.p0(i64 8, ptr %11) #7
  %37 = load ptr, ptr %9, align 8
  %38 = getelementptr inbounds nuw %struct.SDL_WindowData, ptr %37, i32 0, i32 24
  %39 = load ptr, ptr %38, align 8
  %40 = getelementptr inbounds nuw %struct.SDL_VideoData, ptr %39, i32 0, i32 0
  %41 = load ptr, ptr %40, align 8
  store ptr %41, ptr %11, align 8
  call void @llvm.lifetime.start.p0(i64 192, ptr %12) #7
  %42 = load ptr, ptr %9, align 8
  %43 = getelementptr inbounds nuw %struct.SDL_WindowData, ptr %42, i32 0, i32 39
  %44 = load i32, ptr %43, align 8
  %45 = and i32 %44, 8
  %46 = icmp ne i32 %45, 0
  br i1 %46, label %47, label %51

47:                                               ; preds = %3
  %48 = load ptr, ptr %4, align 8
  %49 = load ptr, ptr %5, align 8
  %50 = call zeroext i1 @X11_SyncWindow(ptr noundef %48, ptr noundef %49)
  br label %51

51:                                               ; preds = %47, %3
  %52 = load ptr, ptr %5, align 8
  %53 = getelementptr inbounds nuw %struct.SDL_Window, ptr %52, i32 0, i32 15
  %54 = load i64, ptr %53, align 8
  %55 = and i64 %54, 1
  %56 = icmp ne i64 %55, 0
  br i1 %56, label %130, label %57

57:                                               ; preds = %51
  %58 = load ptr, ptr %11, align 8
  %59 = load ptr, ptr %10, align 8
  %60 = getelementptr inbounds nuw %struct.SDL_DisplayData, ptr %59, i32 0, i32 0
  %61 = load i32, ptr %60, align 8
  %62 = load ptr, ptr %9, align 8
  %63 = getelementptr inbounds nuw %struct.SDL_WindowData, ptr %62, i32 0, i32 1
  %64 = load i64, ptr %63, align 8
  %65 = load i8, ptr %6, align 1, !range !5, !noundef !6
  %66 = trunc i8 %65 to i1
  call void @SetWindowBordered(ptr noundef %58, i32 noundef %61, i64 noundef %64, i1 noundef zeroext %66)
  %67 = load ptr, ptr @X11_XFlush, align 8
  %68 = load ptr, ptr %11, align 8
  %69 = call i32 %67(ptr noundef %68)
  %70 = load i8, ptr %8, align 1, !range !5, !noundef !6
  %71 = trunc i8 %70 to i1
  br i1 %71, label %72, label %98

72:                                               ; preds = %57
  call void @llvm.lifetime.start.p0(i64 136, ptr %13) #7
  br label %73

73:                                               ; preds = %83, %72
  %74 = load ptr, ptr @X11_XSync, align 8
  %75 = load ptr, ptr %11, align 8
  %76 = call i32 %74(ptr noundef %75, i32 noundef 0)
  %77 = load ptr, ptr @X11_XGetWindowAttributes, align 8
  %78 = load ptr, ptr %11, align 8
  %79 = load ptr, ptr %9, align 8
  %80 = getelementptr inbounds nuw %struct.SDL_WindowData, ptr %79, i32 0, i32 1
  %81 = load i64, ptr %80, align 8
  %82 = call i32 %77(ptr noundef %78, i64 noundef %81, ptr noundef %13)
  br label %83

83:                                               ; preds = %73
  %84 = getelementptr inbounds nuw %struct.XWindowAttributes, ptr %13, i32 0, i32 17
  %85 = load i32, ptr %84, align 4
  %86 = icmp ne i32 %85, 2
  br i1 %86, label %73, label %87, !llvm.loop !15

87:                                               ; preds = %83
  %88 = load i8, ptr %7, align 1, !range !5, !noundef !6
  %89 = trunc i8 %88 to i1
  br i1 %89, label %90, label %97

90:                                               ; preds = %87
  %91 = load ptr, ptr @X11_XSetInputFocus, align 8
  %92 = load ptr, ptr %11, align 8
  %93 = load ptr, ptr %9, align 8
  %94 = getelementptr inbounds nuw %struct.SDL_WindowData, ptr %93, i32 0, i32 1
  %95 = load i64, ptr %94, align 8
  %96 = call i32 %91(ptr noundef %92, i64 noundef %95, i32 noundef 2, i64 noundef 0)
  br label %97

97:                                               ; preds = %90, %87
  call void @llvm.lifetime.end.p0(i64 136, ptr %13) #7
  br label %98

98:                                               ; preds = %97, %57
  %99 = load ptr, ptr @X11_XSync, align 8
  %100 = load ptr, ptr %11, align 8
  %101 = call i32 %99(ptr noundef %100, i32 noundef 0)
  %102 = load ptr, ptr @X11_XCheckIfEvent, align 8
  %103 = load ptr, ptr %11, align 8
  %104 = load ptr, ptr %9, align 8
  %105 = getelementptr inbounds nuw %struct.SDL_WindowData, ptr %104, i32 0, i32 1
  %106 = call i32 %102(ptr noundef %103, ptr noundef %12, ptr noundef @isUnmapNotify, ptr noundef %105)
  %107 = load ptr, ptr @X11_XCheckIfEvent, align 8
  %108 = load ptr, ptr %11, align 8
  %109 = load ptr, ptr %9, align 8
  %110 = getelementptr inbounds nuw %struct.SDL_WindowData, ptr %109, i32 0, i32 1
  %111 = call i32 %107(ptr noundef %108, ptr noundef %12, ptr noundef @isMapNotify, ptr noundef %110)
  %112 = load ptr, ptr %9, align 8
  call void @X11_GetBorderValues(ptr noundef %112)
  %113 = load ptr, ptr @X11_XResizeWindow, align 8
  %114 = load ptr, ptr %11, align 8
  %115 = load ptr, ptr %9, align 8
  %116 = getelementptr inbounds nuw %struct.SDL_WindowData, ptr %115, i32 0, i32 1
  %117 = load i64, ptr %116, align 8
  %118 = load ptr, ptr %5, align 8
  %119 = getelementptr inbounds nuw %struct.SDL_Window, ptr %118, i32 0, i32 23
  %120 = getelementptr inbounds nuw %struct.SDL_Rect, ptr %119, i32 0, i32 2
  %121 = load i32, ptr %120, align 8
  %122 = load ptr, ptr %5, align 8
  %123 = getelementptr inbounds nuw %struct.SDL_Window, ptr %122, i32 0, i32 23
  %124 = getelementptr inbounds nuw %struct.SDL_Rect, ptr %123, i32 0, i32 3
  %125 = load i32, ptr %124, align 4
  %126 = call i32 %113(ptr noundef %114, i64 noundef %117, i32 noundef %121, i32 noundef %125)
  %127 = load ptr, ptr @X11_XSync, align 8
  %128 = load ptr, ptr %11, align 8
  %129 = call i32 %127(ptr noundef %128, i32 noundef 0)
  br label %135

130:                                              ; preds = %51
  %131 = load ptr, ptr %9, align 8
  %132 = getelementptr inbounds nuw %struct.SDL_WindowData, ptr %131, i32 0, i32 45
  store i8 1, ptr %132, align 4
  %133 = load ptr, ptr %9, align 8
  %134 = getelementptr inbounds nuw %struct.SDL_WindowData, ptr %133, i32 0, i32 46
  store i8 0, ptr %134, align 1
  br label %135

135:                                              ; preds = %130, %98
  call void @llvm.lifetime.end.p0(i64 192, ptr %12) #7
  call void @llvm.lifetime.end.p0(i64 8, ptr %11) #7
  call void @llvm.lifetime.end.p0(i64 8, ptr %10) #7
  call void @llvm.lifetime.end.p0(i64 8, ptr %9) #7
  call void @llvm.lifetime.end.p0(i64 1, ptr %8) #7
  call void @llvm.lifetime.end.p0(i64 1, ptr %7) #7
  ret void
}