; Function Attrs: nounwind uwtable
define hidden void @X11_SetWindowBordered(ptr noundef %0, ptr noundef %1, i1 noundef zeroext %2) local_unnamed_addr #0 {
  %4 = alloca %struct.anon.6, align 8
  %5 = alloca %union._XEvent, align 8
  %6 = alloca %struct.XWindowAttributes, align 8
  %7 = getelementptr inbounds nuw i8, ptr %1, i64 72
  %8 = load i64, ptr %7, align 8
  %9 = and i64 %8, 512
  %.not = icmp eq i64 %9, 0
  %10 = and i64 %8, 8
  %.not33 = icmp eq i64 %10, 0
  %11 = getelementptr inbounds nuw i8, ptr %1, i64 392
  %12 = load ptr, ptr %11, align 8
  %13 = tail call ptr @SDL_GetDisplayDriverDataForWindow(ptr noundef %1) #12
  %14 = getelementptr inbounds nuw i8, ptr %12, i64 336
  %15 = load ptr, ptr %14, align 8
  %16 = load ptr, ptr %15, align 8
  call void @llvm.lifetime.start.p0(i64 192, ptr nonnull %5) #12
  %17 = getelementptr inbounds nuw i8, ptr %12, i64 528
  %18 = load i32, ptr %17, align 8
  %19 = and i32 %18, 8
  %.not34 = icmp eq i32 %19, 0
  br i1 %.not34, label %22, label %20

20:                                               ; preds = %3
  %21 = tail call zeroext i1 @X11_SyncWindow(ptr noundef %0, ptr noundef nonnull %1)
  br label %22

22:                                               ; preds = %20, %3
  %23 = load i64, ptr %7, align 8
  %24 = and i64 %23, 1
  %.not35 = icmp eq i64 %24, 0
  br i1 %.not35, label %25, label %79

25:                                               ; preds = %22
  %26 = load i32, ptr %13, align 8
  %27 = getelementptr inbounds nuw i8, ptr %12, i64 8
  %28 = load i64, ptr %27, align 8
  %29 = load ptr, ptr @X11_XInternAtom, align 8
  %30 = tail call i64 %29(ptr noundef %16, ptr noundef nonnull @.str.45, i32 noundef 1) #12
  %.not.i = icmp eq i64 %30, 0
  br i1 %.not.i, label %38, label %31

31:                                               ; preds = %25
  call void @llvm.lifetime.start.p0(i64 40, ptr nonnull %4) #12
  store i64 2, ptr %4, align 8
  %32 = getelementptr inbounds nuw i8, ptr %4, i64 8
  store i64 0, ptr %32, align 8
  %33 = getelementptr inbounds nuw i8, ptr %4, i64 16
  %34 = zext i1 %2 to i64
  store i64 %34, ptr %33, align 8
  %35 = getelementptr inbounds nuw i8, ptr %4, i64 24
  call void @llvm.memset.p0.i64(ptr noundef nonnull align 8 dereferenceable(16) %35, i8 0, i64 16, i1 false)
  %36 = load ptr, ptr @X11_XChangeProperty, align 8
  %37 = call i32 %36(ptr noundef %16, i64 noundef %28, i64 noundef %30, i64 noundef %30, i32 noundef 32, i32 noundef 0, ptr noundef nonnull %4, i32 noundef 5) #12
  call void @llvm.lifetime.end.p0(i64 40, ptr nonnull %4) #12
  br label %SetWindowBordered.exit

38:                                               ; preds = %25
  %39 = load ptr, ptr @X11_XSetTransientForHint, align 8
  %40 = getelementptr inbounds nuw i8, ptr %16, i64 232
  %41 = load ptr, ptr %40, align 8
  %42 = sext i32 %26 to i64
  %43 = getelementptr inbounds %struct.Screen, ptr %41, i64 %42, i32 2
  %44 = load i64, ptr %43, align 8
  %45 = tail call i32 %39(ptr noundef %16, i64 noundef %28, i64 noundef %44) #12
  br label %SetWindowBordered.exit

SetWindowBordered.exit:                           ; preds = %31, %38
  %46 = load ptr, ptr @X11_XFlush, align 8
  %47 = call i32 %46(ptr noundef %16) #12
  br i1 %.not33, label %48, label %63

48:                                               ; preds = %SetWindowBordered.exit
  call void @llvm.lifetime.start.p0(i64 136, ptr nonnull %6) #12
  %49 = getelementptr inbounds nuw i8, ptr %6, i64 92
  br label %50

50:                                               ; preds = %50, %48
  %51 = load ptr, ptr @X11_XSync, align 8
  %52 = call i32 %51(ptr noundef %16, i32 noundef 0) #12
  %53 = load ptr, ptr @X11_XGetWindowAttributes, align 8
  %54 = load i64, ptr %27, align 8
  %55 = call i32 %53(ptr noundef %16, i64 noundef %54, ptr noundef nonnull %6) #12
  %56 = load i32, ptr %49, align 4
  %.not36 = icmp eq i32 %56, 2
  br i1 %.not36, label %57, label %50, !llvm.loop !16

57:                                               ; preds = %50
  br i1 %.not, label %62, label %58

58:                                               ; preds = %57
  %59 = load ptr, ptr @X11_XSetInputFocus, align 8
  %60 = load i64, ptr %27, align 8
  %61 = call i32 %59(ptr noundef %16, i64 noundef %60, i32 noundef 2, i64 noundef 0) #12
  br label %62

62:                                               ; preds = %58, %57
  call void @llvm.lifetime.end.p0(i64 136, ptr nonnull %6) #12
  br label %63

63:                                               ; preds = %62, %SetWindowBordered.exit
  %64 = load ptr, ptr @X11_XSync, align 8
  %65 = call i32 %64(ptr noundef %16, i32 noundef 0) #12
  %66 = load ptr, ptr @X11_XCheckIfEvent, align 8
  %67 = call i32 %66(ptr noundef %16, ptr noundef nonnull %5, ptr noundef nonnull @isUnmapNotify, ptr noundef nonnull %27) #12
  %68 = load ptr, ptr @X11_XCheckIfEvent, align 8
  %69 = call i32 %68(ptr noundef %16, ptr noundef nonnull %5, ptr noundef nonnull @isMapNotify, ptr noundef nonnull %27) #12
  call void @X11_GetBorderValues(ptr noundef nonnull %12) #12
  %70 = load ptr, ptr @X11_XResizeWindow, align 8
  %71 = load i64, ptr %27, align 8
  %72 = getelementptr inbounds nuw i8, ptr %1, i64 128
  %73 = load i32, ptr %72, align 8
  %74 = getelementptr inbounds nuw i8, ptr %1, i64 132
  %75 = load i32, ptr %74, align 4
  %76 = call i32 %70(ptr noundef %16, i64 noundef %71, i32 noundef %73, i32 noundef %75) #12
  %77 = load ptr, ptr @X11_XSync, align 8
  %78 = call i32 %77(ptr noundef %16, i32 noundef 0) #12
  br label %82

79:                                               ; preds = %22
  %80 = getelementptr inbounds nuw i8, ptr %12, i64 540
  store i8 1, ptr %80, align 4
  %81 = getelementptr inbounds nuw i8, ptr %12, i64 541
  store i8 0, ptr %81, align 1
  br label %82

82:                                               ; preds = %79, %63
  call void @llvm.lifetime.end.p0(i64 192, ptr nonnull %5) #12
  ret void
}